; Function Attrs: mustprogress nounwind uwtable
define internal noundef zeroext i1 @_ZN4llvm12function_refIFbRNS_5ValueEEE11callback_fnIZZN12_GLOBAL__N_120AAKernelInfoFunction10updateImplERNS_10AttributorEENKUlRNS_11InstructionEE_clESB_EUlS2_E_EEblS2_(i64 noundef %0, ptr noundef nonnull align 8 dereferenceable(24) %1) #0 align 2 {
  %3 = inttoptr i64 %0 to ptr
  %4 = getelementptr inbounds nuw i8, ptr %3, i64 8
  %5 = load ptr, ptr %4, align 8
  %6 = load ptr, ptr %3, align 8
  %7 = tail call noundef zeroext i1 @_ZN4llvm2AA26isAssumedThreadLocalObjectERNS_10AttributorERNS_5ValueERKNS_17AbstractAttributeE(ptr noundef nonnull align 8 dereferenceable(4296) %6, ptr noundef nonnull align 8 dereferenceable(24) %1, ptr noundef nonnull align 8 dereferenceable(80) %5) #26
  br i1 %7, label %_ZZZN12_GLOBAL__N_120AAKernelInfoFunction10updateImplERN4llvm10AttributorEENKUlRNS1_11InstructionEE_clES5_ENKUlRNS1_5ValueEE_clES8_.exit, label %8

8:                                                ; preds = %2
  %9 = load i8, ptr %1, align 8
  %10 = icmp ugt i8 %9, 28
  br i1 %10, label %11, label %_ZZZN12_GLOBAL__N_120AAKernelInfoFunction10updateImplERN4llvm10AttributorEENKUlRNS1_11InstructionEE_clES5_ENKUlRNS1_5ValueEE_clES8_.exit

11:                                               ; preds = %8
  switch i8 %9, label %_ZZZN12_GLOBAL__N_120AAKernelInfoFunction10updateImplERN4llvm10AttributorEENKUlRNS1_11InstructionEE_clES5_ENKUlRNS1_5ValueEE_clES8_.exit [
    i8 85, label %_ZN4llvm8dyn_castINS_8CallBaseENS_5ValueEEEDcPT0_.exit.i
    i8 34, label %_ZN4llvm8dyn_castINS_8CallBaseENS_5ValueEEEDcPT0_.exit.i
    i8 40, label %_ZN4llvm8dyn_castINS_8CallBaseENS_5ValueEEEDcPT0_.exit.i
  ]

_ZN4llvm8dyn_castINS_8CallBaseENS_5ValueEEEDcPT0_.exit.i: ; preds = %11, %11, %11
  %12 = getelementptr inbounds nuw i8, ptr %3, i64 16
  %13 = load ptr, ptr %12, align 8
  %14 = load ptr, ptr %13, align 8
  %.not8.i = icmp eq ptr %14, null
  br i1 %.not8.i, label %_ZZZN12_GLOBAL__N_120AAKernelInfoFunction10updateImplERN4llvm10AttributorEENKUlRNS1_11InstructionEE_clES5_ENKUlRNS1_5ValueEE_clES8_.exit, label %15

15:                                               ; preds = %_ZN4llvm8dyn_castINS_8CallBaseENS_5ValueEEEDcPT0_.exit.i
  %16 = load ptr, ptr %14, align 8
  %17 = getelementptr inbounds i8, ptr %16, i64 112
  %18 = load ptr, ptr %17, align 8
  %19 = tail call noundef zeroext i1 %18(ptr noundef nonnull align 8 dereferenceable(90) %14, ptr noundef nonnull align 8 dereferenceable(88) %1) #26
  br label %_ZZZN12_GLOBAL__N_120AAKernelInfoFunction10updateImplERN4llvm10AttributorEENKUlRNS1_11InstructionEE_clES5_ENKUlRNS1_5ValueEE_clES8_.exit

_ZZZN12_GLOBAL__N_120AAKernelInfoFunction10updateImplERN4llvm10AttributorEENKUlRNS1_11InstructionEE_clES5_ENKUlRNS1_5ValueEE_clES8_.exit: ; preds = %2, %8, %11, %_ZN4llvm8dyn_castINS_8CallBaseENS_5ValueEEEDcPT0_.exit.i, %15
  %.0.i = phi i1 [ true, %2 ], [ false, %_ZN4llvm8dyn_castINS_8CallBaseENS_5ValueEEEDcPT0_.exit.i ], [ %19, %15 ], [ false, %8 ], [ false, %11 ]
  ret i1 %.0.i
}